; Function Attrs: mustprogress uwtable
define void @_ZN2cv6divideERKNS_11_InputArrayES2_RKNS_12_OutputArrayEdi(ptr noundef nonnull align 8 dereferenceable(24) %0, ptr noundef nonnull align 8 dereferenceable(24) %1, ptr noundef nonnull align 8 dereferenceable(24) %2, double noundef %3, i32 noundef %4) local_unnamed_addr #0 personality ptr @__gxx_personality_v0 {
  %6 = alloca double, align 8
  %7 = alloca %"class.cv::utils::trace::details::Region", align 8
  store double %3, ptr %6, align 8
  call void @_ZN2cv5utils5trace7details6RegionC1ERKNS3_21LocationStaticStorageE(ptr noundef nonnull align 8 dereferenceable(12) %7, ptr noundef nonnull align 8 dereferenceable(32) @_ZZN2cv6divideERKNS_11_InputArrayES2_RKNS_12_OutputArrayEdiE26__cv_trace_location_fn1132)
  %8 = invoke noundef nonnull align 8 dereferenceable(24) ptr @_ZN2cv7noArrayEv()
          to label %9 unwind label %17

9:                                                ; preds = %5
  invoke fastcc void @_ZN2cvL9arithm_opERKNS_11_InputArrayES2_RKNS_12_OutputArrayES2_iPPFvPKhmS7_mPhmiiPvEbS9_iPFiS7_mS7_mS8_miiS9_E(ptr noundef nonnull align 8 dereferenceable(24) %0, ptr noundef nonnull align 8 dereferenceable(24) %1, ptr noundef nonnull align 8 dereferenceable(24) %2, ptr noundef nonnull align 8 dereferenceable(24) %8, i32 noundef %4, ptr noundef nonnull @_ZZN2cvL9getDivTabEvE6divTab, i1 noundef zeroext true, ptr noundef nonnull %6, ptr noundef null)
          to label %10 unwind label %17

10:                                               ; preds = %9
  %11 = getelementptr inbounds i8, ptr %7, i64 8
  %12 = load i32, ptr %11, align 8
  %.not.i = icmp eq i32 %12, 0
  br i1 %.not.i, label %_ZN2cv5utils5trace7details6RegionD2Ev.exit, label %13

13:                                               ; preds = %10
  invoke void @_ZN2cv5utils5trace7details6Region7destroyEv(ptr noundef nonnull align 8 dereferenceable(12) %7)
          to label %_ZN2cv5utils5trace7details6RegionD2Ev.exit unwind label %14

14:                                               ; preds = %13
  %15 = landingpad { ptr, i32 }
          catch ptr null
  %16 = extractvalue { ptr, i32 } %15, 0
  call void @__clang_call_terminate(ptr %16) #17
  unreachable

_ZN2cv5utils5trace7details6RegionD2Ev.exit:       ; preds = %10, %13
  ret void

17:                                               ; preds = %9, %5
  %18 = landingpad { ptr, i32 }
          cleanup
  call void @_ZN2cv5utils5trace7details6RegionD2Ev(ptr noundef nonnull align 8 dereferenceable(12) %7) #18
  resume { ptr, i32 } %18
}